; Function Attrs: nounwind uwtable
define i32 @H5Tcommitted(i64 noundef %0) local_unnamed_addr #0 {
  %2 = alloca %struct.H5CX_node_t, align 8
  call void @llvm.lifetime.start.p0(i64 480, ptr nonnull %2) #9
  call void @llvm.memset.p0.i64(ptr noundef nonnull align 8 dereferenceable(480) %2, i8 0, i64 480, i1 false)
  %3 = load i8, ptr @H5_libinit_g, align 1, !tbaa !3, !range !7, !noundef !8
  %4 = trunc nuw i8 %3 to i1
  %5 = load i8, ptr @H5_libterm_g, align 1, !range !7
  %6 = trunc nuw i8 %5 to i1
  %7 = select i1 %4, i1 true, i1 %6
  br i1 %7, label %15, label %8, !prof !9

8:                                                ; preds = %1
  %9 = tail call i32 @H5_init_library() #9
  %10 = icmp slt i32 %9, 0
  br i1 %10, label %11, label %._crit_edge, !prof !10

._crit_edge:                                      ; preds = %8
  %.pre = load i8, ptr @H5_libterm_g, align 1, !range !7
  br label %15

11:                                               ; preds = %8
  %12 = load i64, ptr @H5E_FUNC_g, align 8, !tbaa !11
  %13 = load i64, ptr @H5E_CANTINIT_g, align 8, !tbaa !11
  %14 = tail call i32 (ptr, ptr, i32, i64, i64, ptr, ...) @H5E_printf_stack(ptr noundef nonnull @.str, ptr noundef nonnull @__func__.H5Tcommitted, i32 noundef 572, i64 noundef %12, i64 noundef %13, ptr noundef nonnull @.str.1) #9
  br label %.thread16

15:                                               ; preds = %._crit_edge, %1
  %16 = phi i8 [ %.pre, %._crit_edge ], [ %5, %1 ]
  %17 = load i8, ptr @H5T_init_g, align 1, !tbaa !3, !range !7, !noundef !8
  %18 = trunc nuw i8 %17 to i1
  %19 = trunc nuw i8 %16 to i1
  %20 = select i1 %18, i1 true, i1 %19
  br i1 %20, label %28, label %21, !prof !9

21:                                               ; preds = %15
  store i8 1, ptr @H5T_init_g, align 1, !tbaa !3
  %22 = tail call i32 @H5T__init_package() #9
  %23 = icmp slt i32 %22, 0
  br i1 %23, label %24, label %28, !prof !13

24:                                               ; preds = %21
  store i8 0, ptr @H5T_init_g, align 1, !tbaa !3
  %25 = load i64, ptr @H5E_FUNC_g, align 8, !tbaa !11
  %26 = load i64, ptr @H5E_CANTINIT_g, align 8, !tbaa !11
  %27 = tail call i32 (ptr, ptr, i32, i64, i64, ptr, ...) @H5E_printf_stack(ptr noundef nonnull @.str, ptr noundef nonnull @__func__.H5Tcommitted, i32 noundef 572, i64 noundef %25, i64 noundef %26, ptr noundef nonnull @.str.2) #9
  br label %.thread16

28:                                               ; preds = %15, %21
  %29 = call i32 @H5CX_push(ptr noundef nonnull %2) #9
  %30 = icmp slt i32 %29, 0
  br i1 %30, label %31, label %35, !prof !10

31:                                               ; preds = %28
  %32 = load i64, ptr @H5E_FUNC_g, align 8, !tbaa !11
  %33 = load i64, ptr @H5E_CANTSET_g, align 8, !tbaa !11
  %34 = call i32 (ptr, ptr, i32, i64, i64, ptr, ...) @H5E_printf_stack(ptr noundef nonnull @.str, ptr noundef nonnull @__func__.H5Tcommitted, i32 noundef 572, i64 noundef %32, i64 noundef %33, ptr noundef nonnull @.str.3) #9
  br label %.thread16

35:                                               ; preds = %28
  %36 = call i32 @H5E_clear_stack() #9
  %37 = call ptr @H5I_object_verify(i64 noundef %0, i32 noundef 3) #9
  %38 = icmp eq ptr %37, null
  br i1 %38, label %.thread21, label %43, !prof !14

.thread21:                                        ; preds = %35
  %39 = load i64, ptr @H5E_ARGS_g, align 8, !tbaa !11
  %40 = load i64, ptr @H5E_BADTYPE_g, align 8, !tbaa !11
  %41 = call i32 (ptr, ptr, i32, i64, i64, ptr, ...) @H5E_printf_stack(ptr noundef nonnull @.str, ptr noundef nonnull @__func__.H5Tcommitted, i32 noundef 576, i64 noundef %39, i64 noundef %40, ptr noundef nonnull @.str.24) #9
  %42 = call i32 @H5CX_pop(i1 noundef zeroext true) #9
  br label %.thread16

43:                                               ; preds = %35
  %44 = call i32 @H5T_is_named(ptr noundef nonnull %37) #9
  %45 = call i32 @H5CX_pop(i1 noundef zeroext true) #9
  br label %47

.thread16:                                        ; preds = %11, %24, %31, %.thread21
  %46 = call i32 @H5E_dump_api_stack() #9
  br label %47

47:                                               ; preds = %43, %.thread16
  %.091419 = phi i32 [ -1, %.thread16 ], [ %44, %43 ]
  call void @llvm.lifetime.end.p0(i64 480, ptr nonnull %2) #9
  ret i32 %.091419
}